; Function Attrs: nounwind uwtable
define internal range(i32 0, 2) i32 @shake_set_ctx_params(ptr noundef %0, ptr noundef %1) #0 {
  %3 = icmp eq ptr %0, null
  br i1 %3, label %ossl_param_is_empty.exit.thread, label %4

4:                                                ; preds = %2
  %5 = icmp eq ptr %1, null
  br i1 %5, label %ossl_param_is_empty.exit.thread, label %ossl_param_is_empty.exit

ossl_param_is_empty.exit:                         ; preds = %4
  %6 = load ptr, ptr %1, align 8, !tbaa !22
  %.not = icmp eq ptr %6, null
  br i1 %.not, label %ossl_param_is_empty.exit.thread, label %7

7:                                                ; preds = %ossl_param_is_empty.exit
  %8 = tail call ptr @OSSL_PARAM_locate_const(ptr noundef nonnull %1, ptr noundef nonnull @.str.1) #5
  %9 = icmp eq ptr %8, null
  br i1 %9, label %10, label %.thread

10:                                               ; preds = %7
  %11 = tail call ptr @OSSL_PARAM_locate_const(ptr noundef nonnull %1, ptr noundef nonnull @.str.2) #5
  %.not12 = icmp eq ptr %11, null
  br i1 %.not12, label %ossl_param_is_empty.exit.thread, label %.thread

.thread:                                          ; preds = %7, %10
  %.0917 = phi ptr [ %11, %10 ], [ %8, %7 ]
  %12 = getelementptr inbounds nuw i8, ptr %0, i64 376
  %13 = tail call i32 @OSSL_PARAM_get_size_t(ptr noundef nonnull %.0917, ptr noundef nonnull %12) #5
  %.not13 = icmp eq i32 %13, 0
  br i1 %.not13, label %14, label %ossl_param_is_empty.exit.thread

14:                                               ; preds = %.thread
  tail call void @ERR_new() #5
  tail call void @ERR_set_debug(ptr noundef nonnull @.str, i32 noundef 646, ptr noundef nonnull @__func__.shake_set_ctx_params) #5
  tail call void (i32, i32, ptr, ...) @ERR_set_error(i32 noundef 57, i32 noundef 103, ptr noundef null) #5
  br label %ossl_param_is_empty.exit.thread

ossl_param_is_empty.exit.thread:                  ; preds = %4, %10, %.thread, %ossl_param_is_empty.exit, %2, %14
  %.0 = phi i32 [ 0, %14 ], [ 0, %2 ], [ 1, %ossl_param_is_empty.exit ], [ 1, %.thread ], [ 1, %10 ], [ 1, %4 ]
  ret i32 %.0
}